target datalayout = "e-m:e-p270:32:32-p271:32:32-p272:64:64-i64:64-i128:128-f80:128-n8:16:32:64-S128"
target triple = "x86_64-pc-linux-gnu"

%struct.pmix_tma = type { ptr, ptr, ptr, ptr, ptr, ptr, ptr, ptr }

; Function Attrs: inlinehint nounwind uwtable
define internal ptr @pmix_tma_malloc(ptr noundef %0, i64 noundef %1) #1 {
  %3 = alloca ptr, align 8
  %4 = alloca ptr, align 8
  %5 = alloca i64, align 8
  store ptr %0, ptr %4, align 8, !tbaa !8
  store i64 %1, ptr %5, align 8, !tbaa !30
  %6 = load ptr, ptr %4, align 8, !tbaa !8
  %7 = icmp ne ptr null, %6
  br i1 %7, label %8, label %15

8:                                                ; preds = %2
  %9 = load ptr, ptr %4, align 8, !tbaa !8
  %10 = getelementptr inbounds nuw %struct.pmix_tma, ptr %9, i32 0, i32 0
  %11 = load ptr, ptr %10, align 8, !tbaa !226
  %12 = load ptr, ptr %4, align 8, !tbaa !8
  %13 = load i64, ptr %5, align 8, !tbaa !30
  %14 = call ptr %11(ptr noundef %12, i64 noundef %13)
  store ptr %14, ptr %3, align 8
  br label %18

15:                                               ; preds = %2
  %16 = load i64, ptr %5, align 8, !tbaa !30
  %17 = call noalias ptr @malloc(i64 noundef %16) #17
  store ptr %17, ptr %3, align 8
  br label %18

18:                                               ; preds = %15, %8
  %19 = load ptr, ptr %3, align 8
  ret ptr %19
}

; Function Attrs: inlinehint nounwind uwtable
define internal ptr @pmix_bfrops_base_tma_data_array_create(i64 noundef %0, i16 noundef zeroext %1, ptr noundef %2) #1 {
  %4 = alloca ptr, align 8
  %5 = alloca i64, align 8
  %6 = alloca i16, align 2
  %7 = alloca ptr, align 8
  %8 = alloca ptr, align 8
  store i64 %0, ptr %5, align 8, !tbaa !30
  store i16 %1, ptr %6, align 2, !tbaa !49
  store ptr %2, ptr %7, align 8, !tbaa !8
  %9 = load i64, ptr %5, align 8, !tbaa !30
  %10 = icmp eq i64 0, %9
  br i1 %10, label %11, label %12

11:                                               ; preds = %3
  store ptr null, ptr %4, align 8
  br label %30

12:                                               ; preds = %3
  call void @llvm.lifetime.start.p0(i64 8, ptr %8) #15
  %13 = load ptr, ptr %7, align 8, !tbaa !8
  %14 = call ptr @pmix_tma_malloc(ptr noundef %13, i64 noundef 24)
  store ptr %14, ptr %8, align 8, !tbaa !204
  %15 = load ptr, ptr %8, align 8, !tbaa !204
  %16 = icmp ne ptr null, %15
  %17 = xor i1 %16, true
  %18 = xor i1 %17, true
  %19 = zext i1 %18 to i32
  %20 = sext i32 %19 to i64
  %21 = call i64 @llvm.expect.i64(i64 %20, i64 1)
  %22 = icmp ne i64 %21, 0
  br i1 %22, label %23, label %28

23:                                               ; preds = %12
  %24 = load ptr, ptr %8, align 8, !tbaa !204
  %25 = load i64, ptr %5, align 8, !tbaa !30
  %26 = load i16, ptr %6, align 2, !tbaa !49
  %27 = load ptr, ptr %7, align 8, !tbaa !8
  call void @pmix_bfrops_base_tma_data_array_construct(ptr noundef %24, i64 noundef %25, i16 noundef zeroext %26, ptr noundef %27)
  br label %28

28:                                               ; preds = %23, %12
  %29 = load ptr, ptr %8, align 8, !tbaa !204
  store ptr %29, ptr %4, align 8
  call void @llvm.lifetime.end.p0(i64 8, ptr %8) #15
  br label %30

30:                                               ; preds = %28, %11
  %31 = load ptr, ptr %4, align 8
  ret ptr %31
}

; Function Attrs: nounwind uwtable
define ptr @PMIx_Data_array_create(i64 noundef %0, i16 noundef zeroext %1) #0 {
  %3 = alloca i64, align 8
  %4 = alloca i16, align 2
  store i64 %0, ptr %3, align 8, !tbaa !30
  store i16 %1, ptr %4, align 2, !tbaa !49
  %5 = load i64, ptr %3, align 8, !tbaa !30
  %6 = load i16, ptr %4, align 2, !tbaa !49
  %7 = call ptr @pmix_bfrops_base_tma_data_array_create(i64 noundef %5, i16 noundef zeroext %6, ptr noundef null)
  ret ptr %7
}