; Function Attrs: nofree nounwind memory(write, inaccessiblemem: readwrite) uwtable
define noalias noundef ptr @PMIx_Data_array_create(i64 noundef %0, i16 noundef zeroext %1) local_unnamed_addr #21 {
  %3 = icmp eq i64 %0, 0
  br i1 %3, label %pmix_bfrops_base_tma_data_array_create.exit, label %4

4:                                                ; preds = %2
  %5 = tail call noalias noundef dereferenceable_or_null(24) ptr @malloc(i64 noundef 24) #45
  %.not.i = icmp eq ptr %5, null
  br i1 %.not.i, label %pmix_bfrops_base_tma_data_array_create.exit, label %6, !prof !77

6:                                                ; preds = %4
  tail call fastcc void @pmix_bfrops_base_tma_data_array_construct(ptr noundef nonnull %5, i64 noundef %0, i16 noundef zeroext %1)
  br label %pmix_bfrops_base_tma_data_array_create.exit

pmix_bfrops_base_tma_data_array_create.exit:      ; preds = %2, %4, %6
  %.0.i = phi ptr [ null, %2 ], [ %5, %6 ], [ null, %4 ]
  ret ptr %.0.i
}